Certificate:
    Data:
        Version: 3 (0x2)
        Serial Number:
            58:5f:a4:53:df:91:a4:84:10:77:57:9e:27:11:1a:db
        Signature Algorithm: sha256WithRSAEncryption
        Issuer: C = US, O = Adobe Systems Incorporated, OU = Adobe Trust Services, CN = Adobe Product Services G3
        Validity
            Not Before: Mar  1 00:00:00 2022 GMT
            Not After : Mar  1 23:59:59 2023 GMT
        Subject: CN = cai-prod, O = Adobe Inc., L = San Jose, ST = California, C = US, emailAddress = grp-cai-ops@adobe.com
        Subject Public Key Info:
            Public Key Algorithm: rsaEncryption
                RSA Public-Key: (2048 bit)
                Modulus:
                    00:ef:d3:00:a7:7d:86:3d:96:41:c3:b3:29:2b:4c:
                    6e:c5:62:59:d8:1c:17:32:b9:a9:6e:0f:9b:bd:50:
                    b8:f3:bf:e1:6c:4d:63:8b:83:c3:61:af:3f:51:4f:
                    12:3d:11:e0:5b:bb:75:a6:ed:fe:2f:a8:fb:10:61:
                    fc:64:12:9d:30:21:ae:83:56:61:0e:66:16:c0:79:
                    17:db:87:26:d6:43:f0:f8:5a:fb:dc:93:89:84:65:
                    1f:90:66:64:e9:22:7e:c7:5f:ad:60:6e:d3:05:1e:
                    52:54:c6:46:01:72:d2:28:02:df:53:04:01:5b:cf:
                    d7:79:22:0d:96:1b:46:ec:1f:7f:5b:eb:ff:14:49:
                    79:c8:22:4e:05:07:a7:6d:05:14:f5:c5:e1:30:48:
                    3b:70:39:dd:58:06:95:d7:34:12:66:45:61:d7:34:
                    96:59:f3:9a:1f:da:d0:53:7a:c8:3f:90:cb:d3:ac:
                    e2:49:c5:80:d9:f7:b5:38:d7:ac:1c:bd:b5:68:9a:
                    57:9e:b3:e3:57:51:8d:ff:64:1e:31:1f:e3:6c:66:
                    29:6c:ee:6d:5b:2f:6b:f6:85:29:c7:88:ba:2a:65:
                    e5:0a:92:56:c7:52:64:f8:66:98:eb:64:27:6d:b8:
                    8b:16:9b:98:f6:3c:f5:ca:af:b1:ca:52:e0:9b:65:
                    25:c1
                Exponent: 65541 (0x10005)
        X509v3 extensions:
            X509v3 Basic Constraints: critical
                CA:FALSE
            X509v3 Key Usage: critical
                Digital Signature
            X509v3 Extended Key Usage:
                1.2.840.113583.1.1.12, E-mail Protection
            X509v3 Certificate Policies:
                Policy: 1.2.840.113583.1.2.3
                  User Notice:
                    Explicit Text: You are not permitted to use this License Certificate except as permitted by the license agreement.

            X509v3 CRL Distribution Points:

                Full Name:
                  URI:http://pki-crl.symauth.com/ca_7a5c3a0c73117406add19312bc1bc23f/LatestCRL.crl

            Authority Information Access:
                OCSP - URI:http://pki-ocsp.symauth.com

            X509v3 Authority Key Identifier:
                keyid:57:29:7A:32:4D:CC:FE:E4:35:4E:C0:1F:24:73:CE:73:53:AB:DF:6A

    Signature Algorithm: sha256WithRSAEncryption
         99:7d:f8:5b:79:4a:f7:de:21:45:44:76:db:ff:3b:af:43:e3:
         fc:b7:d8:ea:5c:d1:6d:c7:85:81:bc:2d:2b:14:af:ce:ce:7c:
         f5:41:3a:b1:35:ee:f6:0e:d5:86:45:ed:8e:1b:9b:dd:29:00:
         5e:1d:b7:d6:92:d9:48:01:78:79:27:b9:19:b4:09:60:9b:e0:
         04:cd:33:93:83:c0:c9:a4:47:5a:7e:a1:03:a7:d8:37:7d:07:
         86:47:c5:7f:45:c1:ad:82:4b:50:b6:56:a2:b3:54:ba:f4:24:
         91:3e:18:87:bf:72:2f:dc:c5:d1:9d:f7:7f:54:d8:88:f9:4b:
         bc:cb:08:73:c5:e4:63:96:74:f2:95:1e:05:40:68:e5:63:ca:
         12:65:94:ca:53:b1:f3:b6:ea:d1:80:2b:a5:5d:8b:6d:30:55:
         14:00:c5:71:03:87:60:09:f8:5d:69:74:f7:4a:4f:6f:ff:40:
         9f:c8:dc:74:f6:3a:53:6b:5d:42:2c:f7:69:ff:4a:5d:28:01:
         11:85:2b:c1:95:f5:c9:0e:a5:6f:73:12:db:51:f6:8b:c7:1f:
         d6:d3:29:b8:3f:6e:8f:53:2a:73:6a:93:45:ad:5a:3b:3e:0a:
         6e:42:4f:4d:3e:0d:48:1b:61:f9:c8:8a:df:e9:53:a9:ff:fe:
         de:71:ef:42:1d:28:78:b9:03:4c:fe:ee:d6:8f:2a:c8:d3:5f:
         0e:54:f5:4d:d4:1b:15:03:ae:fb:3d:76:a5:57:fa:48:f8:98:
         62:6c:96:0c:fa:7f:1e:57:f5:55:03:8c:cb:da:e1:68:ab:ef:
         9f:bb:57:01:d2:0b:68:5a:8d:ae:9f:8c:2f:0e:f3:89:3e:98:
         82:73:37:f3:2b:45:7a:77:99:fb:c9:1a:2d:d2:fe:d4:d7:db:
         87:b2:19:48:7e:3e:d6:3d:67:ee:b0:fa:6b:ee:67:67:e5:89:
         02:98:7f:fc:60:31:9a:0f:5f:d0:47:9c:be:27:c6:01:66:37:
         5a:33:68:f4:9a:2b:e3:9a:0f:27:ca:32:5c:8b:09:36:24:9c:
         51:bc:3c:e7:e8:b1:bc:cf:20:ae:00:a3:51:1b:dd:20:2c:aa:
         86:d3:90:3e:5c:b0:1a:de:c2:a1:d8:87:d7:80:27:6e:54:40:
         86:50:f2:dc:66:f2:68:67:0c:2e:6d:a2:45:00:67:4f:a8:c5:
         9f:dc:ac:a9:89:21:72:e0:66:1a:a3:c4:50:ae:a9:1d:36:85:
         a5:3e:f8:14:1e:48:4a:23:29:94:14:42:08:17:93:f6:54:a5:
         8e:8f:cd:a0:74:90:59:88:9d:2f:5f:cb:4f:cc:d0:80:fc:7a:
         c1:17:83:bd:84:60:62:e0
-----BEGIN CERTIFICATE-----
MIIGETCCA/mgAwIBAgIQWF+kU9+RpIQQd1eeJxEa2zANBgkqhkiG9w0BAQsFADB1
MQswCQYDVQQGEwJVUzEjMCEGA1UEChMaQWRvYmUgU3lzdGVtcyBJbmNvcnBvcmF0
ZWQxHTAbBgNVBAsTFEFkb2JlIFRydXN0IFNlcnZpY2VzMSIwIAYDVQQDExlBZG9i
ZSBQcm9kdWN0IFNlcnZpY2VzIEczMB4XDTIyMDMwMTAwMDAwMFoXDTIzMDMwMTIz
NTk1OVowgYMxETAPBgNVBAMMCGNhaS1wcm9kMRMwEQYDVQQKDApBZG9iZSBJbmMu
MREwDwYDVQQHDAhTYW4gSm9zZTETMBEGA1UECAwKQ2FsaWZvcm5pYTELMAkGA1UE
BhMCVVMxJDAiBgkqhkiG9w0BCQEWFWdycC1jYWktb3BzQGFkb2JlLmNvbTCCASIw
DQYJKoZIhvcNAQEBBQADggEPADCCAQoCggEBAO/TAKd9hj2WQcOzKStMbsViWdgc
FzK5qW4Pm71QuPO/4WxNY4uDw2GvP1FPEj0R4Fu7dabt/i+o+xBh/GQSnTAhroNW
YQ5mFsB5F9uHJtZD8Pha+9yTiYRlH5BmZOkifsdfrWBu0wUeUlTGRgFy0igC31ME
AVvP13kiDZYbRuwff1vr/xRJecgiTgUHp20FFPXF4TBIO3A53VgGldc0EmZFYdc0
llnzmh/a0FN6yD+Qy9Os4knFgNn3tTjXrBy9tWiaV56z41dRjf9kHjEf42xmKWzu
bVsva/aFKceIuipl5QqSVsdSZPhmmOtkJ224ixabmPY89cqvscpS4JtlJcECAwEA
BaOCAYwwggGIMAwGA1UdEwEB/wQCMAAwDgYDVR0PAQH/BAQDAgeAMB4GA1UdJQQX
MBUGCSqGSIb3LwEBDAYIKwYBBQUHAwQwgY4GA1UdIASBhjCBgzCBgAYJKoZIhvcv
AQIDMHMwcQYIKwYBBQUHAgIwZQxjWW91IGFyZSBub3QgcGVybWl0dGVkIHRvIHVz
ZSB0aGlzIExpY2Vuc2UgQ2VydGlmaWNhdGUgZXhjZXB0IGFzIHBlcm1pdHRlZCBi
eSB0aGUgbGljZW5zZSBhZ3JlZW1lbnQuMF0GA1UdHwRWMFQwUqBQoE6GTGh0dHA6
Ly9wa2ktY3JsLnN5bWF1dGguY29tL2NhXzdhNWMzYTBjNzMxMTc0MDZhZGQxOTMx
MmJjMWJjMjNmL0xhdGVzdENSTC5jcmwwNwYIKwYBBQUHAQEEKzApMCcGCCsGAQUF
BzABhhtodHRwOi8vcGtpLW9jc3Auc3ltYXV0aC5jb20wHwYDVR0jBBgwFoAUVyl6
Mk3M/uQ1TsAfJHPOc1Or32owDQYJKoZIhvcNAQELBQADggIBAJl9+Ft5SvfeIUVE
dtv/O69D4/y32Opc0W3HhYG8LSsUr87OfPVBOrE17vYO1YZF7Y4bm90pAF4dt9aS
2UgBeHknuRm0CWCb4ATNM5ODwMmkR1p+oQOn2Dd9B4ZHxX9Fwa2CS1C2VqKzVLr0
JJE+GIe/ci/cxdGd939U2Ij5S7zLCHPF5GOWdPKVHgVAaOVjyhJllMpTsfO26tGA
K6Vdi20wVRQAxXEDh2AJ+F1pdPdKT2//QJ/I3HT2OlNrXUIs92n/Sl0oARGFK8GV
9ckOpW9zEttR9ovHH9bTKbg/bo9TKnNqk0WtWjs+Cm5CT00+DUgbYfnIit/pU6n/
/t5x70IdKHi5A0z+7taPKsjTXw5U9U3UGxUDrvs9dqVX+kj4mGJslgz6fx5X9VUD
jMva4Wir75+7VwHSC2haja6fjC8O84k+mIJzN/MrRXp3mfvJGi3S/tTX24eyGUh+
PtY9Z+6w+mvuZ2fliQKYf/xgMZoPX9BHnL4nxgFmN1ozaPSaK+OaDyfKMlyLCTYk
nFG8POfosbzPIK4Ao1Eb3SAsqobTkD5csBrewqHYh9eAJ25UQIZQ8txm8mhnDC5t
okUAZ0+oxZ/crKmJIXLgZhqjxFCuqR02haU++BQeSEojKZQUQggXk/ZUpY6PzaB0
kFmInS9fy0/M0ID8esEXg72EYGLg
-----END CERTIFICATE-----
