Certificate:
    Data:
        Version: 3 (0x2)
        Serial Number:
            0c:a8:b6:54:7b:89:e6:d2:06:89:75:cd:8b:9b:89:e2
        Signature Algorithm: sha256WithRSAEncryption
        Issuer: C = US, O = Adobe Systems Incorporated, OU = Adobe Trust Services, CN = Adobe Root CA G2
        Validity
            Not Before: Nov 29 00:00:00 2016 GMT
            Not After : Nov 28 23:59:59 2041 GMT
        Subject: C = US, O = Adobe Systems Incorporated, OU = Adobe Trust Services, CN = Adobe Product Services G3
        Subject Public Key Info:
            Public Key Algorithm: rsaEncryption
                RSA Public-Key: (4096 bit)
                Modulus:
                    00:b7:1f:2e:bd:bd:09:b3:5c:48:6c:fe:0c:83:ae:
                    6c:01:ea:51:78:25:a4:80:3e:89:a7:b1:b2:88:64:
                    da:f6:89:76:81:f9:f9:1d:f3:95:fc:78:98:8d:98:
                    8e:cf:e4:ee:1c:55:3e:0d:73:5a:77:ce:b1:12:a8:
                    15:78:65:4c:96:f2:07:19:ef:c4:1d:c2:81:c6:f1:
                    03:5d:d9:53:5c:1e:73:20:49:1f:97:4f:d2:1a:7e:
                    c9:ea:f4:d7:f0:c3:72:6d:f4:a2:f7:97:90:0d:43:
                    99:f5:f8:c2:6a:af:8f:04:58:d2:e5:97:de:36:6c:
                    e2:ff:24:7e:32:c0:34:8c:a2:a8:59:aa:d2:44:21:
                    45:14:1a:54:15:05:9f:02:02:f2:5c:ec:b1:3a:75:
                    d0:39:0b:9d:8f:13:63:e9:6b:b4:5f:42:01:d7:7f:
                    88:1f:5d:56:70:a7:16:11:65:cc:e2:3e:23:87:a8:
                    4b:cb:6f:42:77:71:28:54:6d:e8:c5:c5:5e:9c:c1:
                    7f:10:c8:03:da:d5:e3:c7:83:54:6d:33:41:d7:f8:
                    3d:f8:c4:7a:37:0e:4c:86:9e:64:fe:0d:da:b4:d1:
                    31:03:18:6d:ba:00:be:4f:74:83:4a:14:84:25:fb:
                    36:aa:e8:a2:45:41:ed:5f:74:61:39:c2:b5:b3:53:
                    89:81:3e:6c:da:cf:71:1b:2e:7f:bb:15:69:70:02:
                    1a:2b:62:a2:0c:95:d6:df:1c:4d:f2:75:cf:9a:4d:
                    4d:49:5b:bf:9b:1b:5f:6a:9a:f8:4e:f4:89:6e:1a:
                    d4:ed:40:37:aa:14:18:f6:7e:0e:9f:6b:1b:1f:55:
                    f5:4f:0f:bb:2d:37:a4:f0:a0:80:e5:90:e0:84:e1:
                    11:3e:22:29:fc:9b:7c:f7:7a:a8:bf:56:c4:e6:b2:
                    64:6a:07:15:83:45:aa:8e:1f:3d:36:10:9a:04:0f:
                    15:c9:1b:77:a2:f9:46:c8:22:9d:35:5d:94:2f:76:
                    e7:e6:f7:45:b1:39:3b:aa:a9:a9:f6:66:a4:cf:5f:
                    d2:b9:55:d8:c4:87:fa:2f:af:bc:45:73:9a:b5:75:
                    9a:3e:49:ae:72:e2:c4:d5:33:ce:78:fe:d2:d4:de:
                    49:4e:81:42:b3:cd:25:d8:3d:84:b7:1a:10:5c:60:
                    91:e3:c2:bf:71:35:11:e7:35:7f:7d:0f:a1:74:83:
                    b3:a2:8d:27:16:7e:fb:63:c6:1d:77:69:3b:ff:1f:
                    41:13:bf:29:9a:87:8c:9f:0e:95:5d:87:d7:0a:e5:
                    84:82:3e:a9:ee:3a:5b:2e:8c:50:32:85:8c:09:5c:
                    e5:83:bd:96:54:d8:49:16:54:b0:e1:a0:fc:7d:ce:
                    9e:cd:e1
                Exponent: 65537 (0x10001)
        X509v3 extensions:
            X509v3 Basic Constraints: critical
                CA:TRUE, pathlen:0
            X509v3 CRL Distribution Points:

                Full Name:
                  URI:http://crl.adobe.com/adoberootg2.crl

            X509v3 Key Usage: critical
                Certificate Sign, CRL Sign
            X509v3 Extended Key Usage:
                1.2.840.113583.1.1.7
            X509v3 Certificate Policies:
                Policy: 1.2.840.113583.1.2.3
                  CPS: https://www.adobe.com/misc/pki/prod_svce_cps.html

            X509v3 Subject Alternative Name:
                DirName:/CN=SYMC-4096-33
            X509v3 Subject Key Identifier:
                57:29:7A:32:4D:CC:FE:E4:35:4E:C0:1F:24:73:CE:73:53:AB:DF:6A
            X509v3 Authority Key Identifier:
                keyid:A6:1C:E1:6D:54:24:4C:A8:8F:48:72:BF:6E:A9:8C:D5:E4:EC:31:D4

    Signature Algorithm: sha256WithRSAEncryption
         71:ce:e5:07:8c:a6:dc:2d:dc:c8:e0:3b:65:5e:00:92:81:95:
         eb:95:20:24:af:9f:69:38:5d:c9:7c:f1:b8:da:a5:4d:00:65:
         3b:25:c1:18:5c:9e:be:59:b7:dc:1b:06:3b:59:83:25:fa:33:
         bb:22:f2:4f:6f:bb:21:5c:56:16:f5:b9:c9:83:15:fb:94:b5:
         35:e0:a1:31:72:19:9c:2c:d6:35:79:ee:88:84:12:76:63:c3:
         f3:64:c4:54:29:27:79:0a:45:11:3e:0d:0f:04:b1:a3:cf:f2:
         91:fc:3a:1f:1f:1f:86:e2:b3:d3:08:e1:8e:45:8c:5e:62:b7:
         74:d6:57:22:e6:15:71:bc:a7:1c:bc:89:3b:30:3e:bd:65:37:
         b0:7d:93:d2:33:ed:16:9e:c5:37:7f:46:66:77:b8:60:6d:1a:
         54:c9:67:1e:1b:47:87:16:97:54:28:af:d9:15:68:47:8c:35:
         42:db:ca:1d:0a:73:7c:f3:9b:47:9d:c2:97:be:22:2d:2b:46:
         54:52:8f:c0:22:d8:45:2a:58:44:5e:c9:ea:f5:52:fd:7c:56:
         e0:bc:ef:37:66:fa:54:42:8e:72:f2:66:37:72:e1:a7:11:51:
         97:76:18:cd:6f:9d:c2:7c:2d:6e:e1:d6:e9:62:65:9a:37:df:
         6c:b9:b5:33:12:c5:1a:51:bd:e5:a0:b3:df:55:fc:c3:3a:98:
         36:cb:db:f7:ee:40:5d:cb:fc:2e:5e:bd:b4:b5:e6:3b:53:ad:
         b1:8f:f7:c0:82:cd:50:4a:78:54:b6:53:13:7c:2a:9b:79:fc:
         84:c9:c2:95:98:a2:2b:26:42:4b:b2:f8:13:49:82:95:bc:7e:
         05:14:8c:1f:77:95:a3:a8:e0:bd:ee:35:fd:f2:b7:15:03:38:
         40:23:48:92:91:ac:ec:58:e3:2f:2f:a9:b4:2f:89:cb:25:aa:
         71:fb:ce:46:b1:55:fc:63:a0:07:98:43:f8:6e:60:84:97:08:
         a5:e8:a0:0f:f9:47:b0:24:58:b0:e6:b9:b0:57:6a:44:48:70:
         21:62:e6:49:6b:4d:c1:f2:d9:74:9d:dd:90:27:3b:c9:1a:66:
         de:06:a5:ea:a4:5f:4e:46:29:c5:33:71:c4:ac:af:29:b9:1a:
         24:3a:31:47:db:ed:5a:b0:b7:88:da:d0:77:d5:6f:c4:2d:d3:
         5e:db:b3:a0:76:ea:ba:67:aa:81:c0:2a:79:f5:85:f6:ee:ac:
         9d:0e:10:f4:59:17:cd:eb:89:02:b3:6e:4a:f3:c8:86:00:63:
         56:d8:20:1f:4c:34:be:6f:e5:98:24:18:88:2f:d8:d7:61:9e:
         0b:17:e0:62:52:f7:dd:bb
-----BEGIN CERTIFICATE-----
MIIGoTCCBImgAwIBAgIQDKi2VHuJ5tIGiXXNi5uJ4jANBgkqhkiG9w0BAQsFADBs
MQswCQYDVQQGEwJVUzEjMCEGA1UEChMaQWRvYmUgU3lzdGVtcyBJbmNvcnBvcmF0
ZWQxHTAbBgNVBAsTFEFkb2JlIFRydXN0IFNlcnZpY2VzMRkwFwYDVQQDExBBZG9i
ZSBSb290IENBIEcyMB4XDTE2MTEyOTAwMDAwMFoXDTQxMTEyODIzNTk1OVowdTEL
MAkGA1UEBhMCVVMxIzAhBgNVBAoTGkFkb2JlIFN5c3RlbXMgSW5jb3Jwb3JhdGVk
MR0wGwYDVQQLExRBZG9iZSBUcnVzdCBTZXJ2aWNlczEiMCAGA1UEAxMZQWRvYmUg
UHJvZHVjdCBTZXJ2aWNlcyBHMzCCAiIwDQYJKoZIhvcNAQEBBQADggIPADCCAgoC
ggIBALcfLr29CbNcSGz+DIOubAHqUXglpIA+iaexsohk2vaJdoH5+R3zlfx4mI2Y
js/k7hxVPg1zWnfOsRKoFXhlTJbyBxnvxB3CgcbxA13ZU1wecyBJH5dP0hp+yer0
1/DDcm30oveXkA1DmfX4wmqvjwRY0uWX3jZs4v8kfjLANIyiqFmq0kQhRRQaVBUF
nwIC8lzssTp10DkLnY8TY+lrtF9CAdd/iB9dVnCnFhFlzOI+I4eoS8tvQndxKFRt
6MXFXpzBfxDIA9rV48eDVG0zQdf4PfjEejcOTIaeZP4N2rTRMQMYbboAvk90g0oU
hCX7NqrookVB7V90YTnCtbNTiYE+bNrPcRsuf7sVaXACGitiogyV1t8cTfJ1z5pN
TUlbv5sbX2qa+E70iW4a1O1AN6oUGPZ+Dp9rGx9V9U8Puy03pPCggOWQ4IThET4i
KfybfPd6qL9WxOayZGoHFYNFqo4fPTYQmgQPFckbd6L5RsginTVdlC925+b3RbE5
O6qpqfZmpM9f0rlV2MSH+i+vvEVzmrV1mj5JrnLixNUzznj+0tTeSU6BQrPNJdg9
hLcaEFxgkePCv3E1Eec1f30PoXSDs6KNJxZ++2PGHXdpO/8fQRO/KZqHjJ8OlV2H
1wrlhII+qe46Wy6MUDKFjAlc5YO9llTYSRZUsOGg/H3Ons3hAgMBAAGjggE0MIIB
MDASBgNVHRMBAf8ECDAGAQH/AgEAMDUGA1UdHwQuMCwwKqAooCaGJGh0dHA6Ly9j
cmwuYWRvYmUuY29tL2Fkb2Jlcm9vdGcyLmNybDAOBgNVHQ8BAf8EBAMCAQYwFAYD
VR0lBA0wCwYJKoZIhvcvAQEHMFcGA1UdIARQME4wTAYJKoZIhvcvAQIDMD8wPQYI
KwYBBQUHAgEWMWh0dHBzOi8vd3d3LmFkb2JlLmNvbS9taXNjL3BraS9wcm9kX3N2
Y2VfY3BzLmh0bWwwJAYDVR0RBB0wG6QZMBcxFTATBgNVBAMTDFNZTUMtNDA5Ni0z
MzAdBgNVHQ4EFgQUVyl6Mk3M/uQ1TsAfJHPOc1Or32owHwYDVR0jBBgwFoAUphzh
bVQkTKiPSHK/bqmM1eTsMdQwDQYJKoZIhvcNAQELBQADggIBAHHO5QeMptwt3Mjg
O2VeAJKBleuVICSvn2k4Xcl88bjapU0AZTslwRhcnr5Zt9wbBjtZgyX6M7si8k9v
uyFcVhb1ucmDFfuUtTXgoTFyGZws1jV57oiEEnZjw/NkxFQpJ3kKRRE+DQ8EsaPP
8pH8Oh8fH4bis9MI4Y5FjF5it3TWVyLmFXG8pxy8iTswPr1lN7B9k9Iz7RaexTd/
RmZ3uGBtGlTJZx4bR4cWl1Qor9kVaEeMNULbyh0Kc3zzm0edwpe+Ii0rRlRSj8Ai
2EUqWEReyer1Uv18VuC87zdm+lRCjnLyZjdy4acRUZd2GM1vncJ8LW7h1uliZZo3
32y5tTMSxRpRveWgs99V/MM6mDbL2/fuQF3L/C5evbS15jtTrbGP98CCzVBKeFS2
UxN8Kpt5/ITJwpWYoismQkuy+BNJgpW8fgUUjB93laOo4L3uNf3ytxUDOEAjSJKR
rOxY4y8vqbQvicslqnH7zkaxVfxjoAeYQ/huYISXCKXooA/5R7AkWLDmubBXakRI
cCFi5klrTcHy2XSd3ZAnO8kaZt4GpeqkX05GKcUzccSsrym5GiQ6MUfb7Vqwt4ja
0HfVb8Qt017bs6B26rpnqoHAKnn1hfburJ0OEPRZF83riQKzbkrzyIYAY1bYIB9M
NL5v5ZgkGIgv2NdhngsX4GJS9927
-----END CERTIFICATE-----
