Certificate:
    Data:
        Version: 3 (0x2)
        Serial Number:
            5d:f1:2f:5f:57:a7:c3:e1:b0:02:d8:93:27:0c:dd:e1
        Signature Algorithm: sha256WithRSAEncryption
        Issuer: C = US, O = Adobe Systems Incorporated, OU = Adobe Trust Services, CN = Adobe Root CA G2
        Validity
            Not Before: Nov 29 00:00:00 2016 GMT
            Not After : Nov 28 23:59:59 2046 GMT
        Subject: C = US, O = Adobe Systems Incorporated, OU = Adobe Trust Services, CN = Adobe Root CA G2
        Subject Public Key Info:
            Public Key Algorithm: rsaEncryption
                RSA Public-Key: (4096 bit)
                Modulus:
                    00:b6:da:72:62:9b:ee:83:7b:32:a2:46:e3:8a:23:
                    32:97:57:ac:2d:73:74:51:cb:06:ff:7b:32:e6:97:
                    0c:ac:c8:e7:d9:20:67:48:4a:f7:4d:25:81:4f:22:
                    5d:6f:69:da:2c:18:42:cf:c5:6c:9d:3e:71:34:71:
                    52:52:a1:b6:1a:5b:9d:14:cd:bb:8d:91:e4:b1:88:
                    f9:70:0f:6d:0c:e7:c6:a7:eb:f3:64:9c:4f:5d:41:
                    c0:5f:e6:17:88:40:4c:eb:03:cb:95:ef:b2:a5:e6:
                    8e:38:bd:1c:23:79:57:c3:22:71:04:c9:71:0e:b3:
                    2b:d5:bd:53:9d:a6:ee:52:ed:de:f2:b5:4f:f7:90:
                    28:52:fd:50:17:7e:24:dd:37:d8:0a:12:1b:13:8b:
                    a3:14:39:e6:a9:49:a7:c6:d5:4c:16:c1:5f:6d:b4:
                    67:0a:e7:1a:99:76:43:9f:45:ec:cc:1c:f4:a4:12:
                    50:6f:fa:90:9f:e6:6a:a8:bb:97:91:3f:fd:e5:20:
                    8f:e0:8f:f9:63:bc:d9:c5:b9:5d:09:8c:a7:96:92:
                    67:a8:60:d5:d5:b6:74:12:c3:75:d1:19:7b:bf:f3:
                    97:8d:de:5a:9f:92:f0:34:41:cb:34:28:7c:3b:7e:
                    c8:02:a4:a7:b3:09:2b:95:5d:86:1e:11:9c:c1:9d:
                    02:49:20:d6:ce:de:da:8b:31:1b:4f:74:84:87:ea:
                    c1:5e:29:13:99:bb:41:3e:22:90:d2:66:c7:1a:2b:
                    bd:93:44:4d:f3:be:17:10:89:a3:bd:a2:ef:23:32:
                    99:95:87:98:a5:ce:6e:f9:6e:3e:f0:72:ce:a5:69:
                    b8:53:e5:77:2c:0a:bd:98:07:22:d7:bb:df:44:d9:
                    d8:96:6d:9c:0a:d7:eb:7f:3f:00:f8:c3:28:7d:e1:
                    25:12:4d:9f:1f:0a:1f:6f:d6:58:d4:de:93:62:18:
                    f2:fb:b2:30:ca:c5:ba:42:8c:cc:38:a0:96:a7:cb:
                    d9:01:b3:c9:6a:4e:6c:c4:da:ce:1b:cf:fd:9d:8c:
                    32:3b:56:56:d3:28:65:e1:9c:79:44:df:4a:ae:b8:
                    1c:dc:33:16:46:68:cf:7a:ce:3d:8b:b5:65:8c:38:
                    f7:73:c4:8e:a6:98:e5:fc:48:32:d0:5d:fe:4b:f6:
                    9b:95:92:15:45:30:04:0d:9e:25:62:a4:c7:4b:bf:
                    71:9f:75:64:07:f1:4b:0b:86:6d:aa:65:0e:fa:fd:
                    37:32:09:5d:17:6d:89:94:40:23:87:e9:b4:53:95:
                    cd:23:6f:09:0f:42:cc:ae:d0:41:1a:db:6c:b7:45:
                    8e:c3:0f:dd:5c:52:7e:c2:09:72:b7:0c:01:34:83:
                    2e:6e:81
                Exponent: 65537 (0x10001)
        X509v3 extensions:
            X509v3 Key Usage: critical
                Certificate Sign, CRL Sign
            X509v3 Basic Constraints: critical
                CA:TRUE
            X509v3 Subject Key Identifier:
                A6:1C:E1:6D:54:24:4C:A8:8F:48:72:BF:6E:A9:8C:D5:E4:EC:31:D4
    Signature Algorithm: sha256WithRSAEncryption
         95:fa:75:63:bf:6a:26:13:36:97:44:20:a5:a5:e2:79:e1:01:
         ef:08:14:44:d9:40:41:13:d0:3a:3c:36:e0:d9:66:9c:ce:0a:
         aa:ec:f1:f4:b4:95:a0:fd:44:3e:54:f1:fb:79:2e:d1:d1:9c:
         4d:88:59:88:1b:0b:4d:e3:93:8c:c4:f8:8f:7e:a3:e6:32:93:
         59:f5:ae:b8:6c:10:6e:86:b0:b5:27:ed:6e:65:bb:06:cc:b9:
         c7:c6:44:53:b8:3b:d2:da:19:47:61:d5:95:76:da:47:8e:82:
         86:29:c7:94:db:bb:f4:85:c1:b5:66:6c:6d:d1:be:fd:bb:63:
         1a:b5:60:e9:c4:00:b3:75:3f:18:01:6c:a0:be:06:d4:c9:2a:
         57:ab:21:0e:f1:d0:36:39:73:10:16:e4:4b:42:1d:72:fb:7e:
         27:7b:2a:9f:f3:a6:25:4f:2d:02:ac:cd:c7:b7:b6:44:b5:08:
         d9:91:f8:0d:3d:50:8d:56:9d:82:29:39:51:53:3d:00:07:93:
         4b:58:13:b0:8a:77:9c:20:a2:77:66:85:d0:ca:5e:21:9a:75:
         bb:6e:44:f3:24:11:c4:16:1e:54:5a:23:d5:96:2d:c7:06:1f:
         73:3d:d7:e8:0e:bc:80:86:fa:64:17:91:cc:fa:be:c2:df:1b:
         12:94:bc:87:8e:ce:ea:12:79:a7:23:41:6d:da:81:0d:ee:92:
         55:dc:33:ed:95:2d:8c:60:44:24:ce:68:73:af:23:f9:03:52:
         86:79:1e:db:7f:dd:b8:87:8a:d2:3a:29:c2:9c:82:78:4b:45:
         72:4c:8d:8c:0a:0b:62:ca:c6:1b:7f:8c:41:01:95:0e:a8:18:
         67:f5:bc:3b:0d:00:43:3f:d9:b7:44:5f:72:a4:26:7c:27:5b:
         c5:66:d3:ba:c4:7c:96:96:5f:f2:b7:9a:3d:4d:97:e5:a7:69:
         60:3a:58:f1:6f:ab:54:d5:0b:72:c9:3f:4a:3f:81:67:c6:29:
         72:b3:24:f7:40:5b:5d:fd:8a:ed:b6:f3:43:0d:8e:0e:dc:c7:
         a6:12:fa:49:09:2d:dc:96:ba:a0:a2:da:59:1b:d0:4e:c6:8a:
         ec:af:30:f9:64:a2:95:f0:ad:b7:8b:b8:00:0c:41:cb:19:70:
         9a:df:ca:1d:e3:1f:1d:9b:24:b7:2f:eb:1c:bc:a4:ee:4c:20:
         b5:1c:d7:76:fa:40:ee:ab:98:90:6c:8b:5a:d4:ed:66:80:79:
         27:56:fb:39:85:2b:68:c0:ee:a8:6d:6c:df:d8:cc:72:11:e3:
         75:ad:46:a8:ec:2c:05:6c:43:a8:2e:07:aa:d7:58:ed:32:b6:
         a1:f6:4b:be:a4:c7:bd:3e
-----BEGIN CERTIFICATE-----
MIIFpDCCA4ygAwIBAgIQXfEvX1enw+GwAtiTJwzd4TANBgkqhkiG9w0BAQsFADBs
MQswCQYDVQQGEwJVUzEjMCEGA1UEChMaQWRvYmUgU3lzdGVtcyBJbmNvcnBvcmF0
ZWQxHTAbBgNVBAsTFEFkb2JlIFRydXN0IFNlcnZpY2VzMRkwFwYDVQQDExBBZG9i
ZSBSb290IENBIEcyMB4XDTE2MTEyOTAwMDAwMFoXDTQ2MTEyODIzNTk1OVowbDEL
MAkGA1UEBhMCVVMxIzAhBgNVBAoTGkFkb2JlIFN5c3RlbXMgSW5jb3Jwb3JhdGVk
MR0wGwYDVQQLExRBZG9iZSBUcnVzdCBTZXJ2aWNlczEZMBcGA1UEAxMQQWRvYmUg
Um9vdCBDQSBHMjCCAiIwDQYJKoZIhvcNAQEBBQADggIPADCCAgoCggIBALbacmKb
7oN7MqJG44ojMpdXrC1zdFHLBv97MuaXDKzI59kgZ0hK900lgU8iXW9p2iwYQs/F
bJ0+cTRxUlKhthpbnRTNu42R5LGI+XAPbQznxqfr82ScT11BwF/mF4hATOsDy5Xv
sqXmjji9HCN5V8MicQTJcQ6zK9W9U52m7lLt3vK1T/eQKFL9UBd+JN032AoSGxOL
oxQ55qlJp8bVTBbBX220ZwrnGpl2Q59F7Mwc9KQSUG/6kJ/maqi7l5E//eUgj+CP
+WO82cW5XQmMp5aSZ6hg1dW2dBLDddEZe7/zl43eWp+S8DRByzQofDt+yAKkp7MJ
K5Vdhh4RnMGdAkkg1s7e2osxG090hIfqwV4pE5m7QT4ikNJmxxorvZNETfO+FxCJ
o72i7yMymZWHmKXObvluPvByzqVpuFPldywKvZgHIte730TZ2JZtnArX638/APjD
KH3hJRJNnx8KH2/WWNTek2IY8vuyMMrFukKMzDiglqfL2QGzyWpObMTazhvP/Z2M
MjtWVtMoZeGceUTfSq64HNwzFkZoz3rOPYu1ZYw493PEjqaY5fxIMtBd/kv2m5WS
FUUwBA2eJWKkx0u/cZ91ZAfxSwuGbaplDvr9NzIJXRdtiZRAI4fptFOVzSNvCQ9C
zK7QQRrbbLdFjsMP3VxSfsIJcrcMATSDLm6BAgMBAAGjQjBAMA4GA1UdDwEB/wQE
AwIBBjAPBgNVHRMBAf8EBTADAQH/MB0GA1UdDgQWBBSmHOFtVCRMqI9Icr9uqYzV
5Owx1DANBgkqhkiG9w0BAQsFAAOCAgEAlfp1Y79qJhM2l0QgpaXieeEB7wgURNlA
QRPQOjw24NlmnM4Kquzx9LSVoP1EPlTx+3ku0dGcTYhZiBsLTeOTjMT4j36j5jKT
WfWuuGwQboawtSftbmW7Bsy5x8ZEU7g70toZR2HVlXbaR46ChinHlNu79IXBtWZs
bdG+/btjGrVg6cQAs3U/GAFsoL4G1MkqV6shDvHQNjlzEBbkS0Idcvt+J3sqn/Om
JU8tAqzNx7e2RLUI2ZH4DT1QjVadgik5UVM9AAeTS1gTsIp3nCCid2aF0MpeIZp1
u25E8yQRxBYeVFoj1ZYtxwYfcz3X6A68gIb6ZBeRzPq+wt8bEpS8h47O6hJ5pyNB
bdqBDe6SVdwz7ZUtjGBEJM5oc68j+QNShnke23/duIeK0jopwpyCeEtFckyNjAoL
YsrGG3+MQQGVDqgYZ/W8Ow0AQz/Zt0RfcqQmfCdbxWbTusR8lpZf8reaPU2X5adp
YDpY8W+rVNULcsk/Sj+BZ8YpcrMk90BbXf2K7bbzQw2ODtzHphL6SQkt3Ja6oKLa
WRvQTsaK7K8w+WSilfCtt4u4AAxByxlwmt/KHeMfHZskty/rHLyk7kwgtRzXdvpA
7quYkGyLWtTtZoB5J1b7OYUraMDuqG1s39jMchHjda1GqOwsBWxDqC4HqtdY7TK2
ofZLvqTHvT4=
-----END CERTIFICATE-----
