Certificate:
    Data:
        Version: 3 (0x2)
        Serial Number: 4096 (0x1000)
        Signature Algorithm: ecdsa-with-SHA256
        Issuer: C=US, ST=California, L=Stanford, O=Starling Lab, CN=Starling Lab Intermediate CA/emailAddress=certificates+noreply@starlinglab.org
        Validity
            Not Before: Nov 21 17:15:18 2022 GMT
            Not After : Jul  1 12:00:00 2023 GMT
        Subject: C=US, ST=California, L=Los Angeles, O=Starling Lab, CN=Starling Lab Bijeljina Investigation/emailAddress=certificates+noreply@starlinglab.org
        Subject Public Key Info:
            Public Key Algorithm: id-ecPublicKey
                Public-Key: (256 bit)
                pub:
                    04:6c:61:6f:0b:99:a2:90:47:23:1f:fe:4b:43:25:
                    d7:38:02:24:21:f4:76:b6:3c:d9:d2:24:d9:bf:93:
                    2d:73:fd:20:e4:ee:21:62:9b:4e:d9:37:92:e8:6f:
                    05:71:c1:c2:66:3b:9d:ff:4b:56:94:ac:fc:29:de:
                    2f:11:3a:20:36
                ASN1 OID: prime256v1
                NIST CURVE: P-256
        X509v3 extensions:
            X509v3 Basic Constraints: 
                CA:FALSE
            Netscape Cert Type: 
                SSL Client, S/MIME
            Netscape Comment: 
                OpenSSL Generated Client Certificate
            X509v3 Subject Key Identifier: 
                A8:44:B8:71:21:06:A7:6D:1A:E9:85:83:43:C7:E1:EE:C3:DF:D0:31
            X509v3 Authority Key Identifier: 
                keyid:E5:29:6E:23:3C:B0:04:1A:6D:0E:4C:7A:62:0A:D2:5C:A1:A4:41:94

            X509v3 Key Usage: 
                Digital Signature
            X509v3 Extended Key Usage: 
                E-mail Protection
    Signature Algorithm: ecdsa-with-SHA256
         30:44:02:20:4f:14:b2:2a:4e:32:67:6c:ce:4a:d8:c9:66:15:
         95:23:91:85:ce:2b:96:d4:db:e5:4a:ca:33:5f:5f:01:97:65:
         02:20:03:61:93:89:8a:b0:6e:48:b1:15:83:b2:77:b8:a0:19:
         cc:79:dc:f7:45:97:3f:c0:e0:17:9c:9b:92:92:70:97
-----BEGIN CERTIFICATE-----
MIIDBTCCAqygAwIBAgICEAAwCgYIKoZIzj0EAwIwgagxCzAJBgNVBAYTAlVTMRMw
EQYDVQQIDApDYWxpZm9ybmlhMREwDwYDVQQHDAhTdGFuZm9yZDEVMBMGA1UECgwM
U3RhcmxpbmcgTGFiMSUwIwYDVQQDDBxTdGFybGluZyBMYWIgSW50ZXJtZWRpYXRl
IENBMTMwMQYJKoZIhvcNAQkBFiRjZXJ0aWZpY2F0ZXMrbm9yZXBseUBzdGFybGlu
Z2xhYi5vcmcwHhcNMjIxMTIxMTcxNTE4WhcNMjMwNzAxMTIwMDAwWjCBszELMAkG
A1UEBhMCVVMxEzARBgNVBAgMCkNhbGlmb3JuaWExFDASBgNVBAcMC0xvcyBBbmdl
bGVzMRUwEwYDVQQKDAxTdGFybGluZyBMYWIxLTArBgNVBAMMJFN0YXJsaW5nIExh
YiBCaWplbGppbmEgSW52ZXN0aWdhdGlvbjEzMDEGCSqGSIb3DQEJARYkY2VydGlm
aWNhdGVzK25vcmVwbHlAc3RhcmxpbmdsYWIub3JnMFkwEwYHKoZIzj0CAQYIKoZI
zj0DAQcDQgAEbGFvC5mikEcjH/5LQyXXOAIkIfR2tjzZ0iTZv5Mtc/0g5O4hYptO
2TeS6G8FccHCZjud/0tWlKz8Kd4vETogNqOBuDCBtTAJBgNVHRMEAjAAMBEGCWCG
SAGG+EIBAQQEAwIFoDAzBglghkgBhvhCAQ0EJhYkT3BlblNTTCBHZW5lcmF0ZWQg
Q2xpZW50IENlcnRpZmljYXRlMB0GA1UdDgQWBBSoRLhxIQanbRrphYNDx+Huw9/Q
MTAfBgNVHSMEGDAWgBTlKW4jPLAEGm0OTHpiCtJcoaRBlDALBgNVHQ8EBAMCB4Aw
EwYDVR0lBAwwCgYIKwYBBQUHAwQwCgYIKoZIzj0EAwIDRwAwRAIgTxSyKk4yZ2zO
StjJZhWVI5GFziuW1NvlSsozX18Bl2UCIANhk4mKsG5IsRWDsne4oBnMedz3RZc/
wOAXnJuSknCX
-----END CERTIFICATE-----
Certificate:
    Data:
        Version: 3 (0x2)
        Serial Number: 4097 (0x1001)
        Signature Algorithm: ecdsa-with-SHA512
        Issuer: C = US, ST = California, L = Stanford, O = Starling Lab, emailAddress = "certificates+noreply@starlinglab.org", CN = Starling Lab Root CA
        Validity
            Not Before: Nov 14 19:26:03 2022 GMT
            Not After : Nov 13 19:26:03 2027 GMT
        Subject: C = US, ST = California, L = Stanford, O = Starling Lab, CN = Starling Lab Intermediate CA, emailAddress = "certificates+noreply@starlinglab.org"
        Subject Public Key Info:
            Public Key Algorithm: id-ecPublicKey
                Public-Key: (256 bit)
                pub:
                    04:03:6a:df:6f:8e:37:d1:c8:3a:b1:79:1a:23:d3:
                    b9:02:57:87:74:9d:b6:54:c2:50:7d:e3:5c:c2:72:
                    a0:75:4a:c3:ab:f6:f3:eb:ae:0f:e0:6a:55:bd:55:
                    ab:69:87:9b:2c:05:bc:68:2c:17:1d:99:76:ea:95:
                    e6:3e:6a:ca:3e
                ASN1 OID: prime256v1
                NIST CURVE: P-256
        X509v3 extensions:
            X509v3 Subject Key Identifier:
                E5:29:6E:23:3C:B0:04:1A:6D:0E:4C:7A:62:0A:D2:5C:A1:A4:41:94
            X509v3 Authority Key Identifier:
                keyid:A0:35:DF:63:14:61:E5:FB:1C:6F:AC:B4:4A:38:9D:99:F1:09:48:CE

            X509v3 Basic Constraints: critical
                CA:TRUE, pathlen:0
            X509v3 Key Usage: critical
                Digital Signature, Certificate Sign, CRL Sign
            Authority Information Access:
                CA Issuers - URI:ipns://certs.starlinglab.org/trust.cert
                CA Issuers - URI:https://certs.starlinglab.org/trust.cert

            X509v3 CRL Distribution Points:

                Full Name:
                  URI:ipns://ca.starlinglab.org/revoke-intermediate.crl

                Full Name:
                  URI:https://ca.starlinglab.org/revoke-intermediate.crl

    Signature Algorithm: ecdsa-with-SHA512
         30:44:02:20:14:31:0c:d9:bc:cd:67:33:ae:8a:b7:6c:57:72:
         af:35:0c:4d:17:c6:e8:39:00:b8:77:73:50:ab:57:da:f9:cb:
         02:20:22:62:90:55:39:ca:e9:7f:ea:e3:a6:93:de:54:51:30:
         9a:99:6f:9e:5f:fe:fb:0d:4a:d6:32:29:04:61:58:10
-----BEGIN CERTIFICATE-----
MIIDnDCCA0OgAwIBAgICEAEwCgYIKoZIzj0EAwQwgaAxCzAJBgNVBAYTAlVTMRMw
EQYDVQQIDApDYWxpZm9ybmlhMREwDwYDVQQHDAhTdGFuZm9yZDEVMBMGA1UECgwM
U3RhcmxpbmcgTGFiMTMwMQYJKoZIhvcNAQkBFiRjZXJ0aWZpY2F0ZXMrbm9yZXBs
eUBzdGFybGluZ2xhYi5vcmcxHTAbBgNVBAMMFFN0YXJsaW5nIExhYiBSb290IENB
MB4XDTIyMTExNDE5MjYwM1oXDTI3MTExMzE5MjYwM1owgagxCzAJBgNVBAYTAlVT
MRMwEQYDVQQIDApDYWxpZm9ybmlhMREwDwYDVQQHDAhTdGFuZm9yZDEVMBMGA1UE
CgwMU3RhcmxpbmcgTGFiMSUwIwYDVQQDDBxTdGFybGluZyBMYWIgSW50ZXJtZWRp
YXRlIENBMTMwMQYJKoZIhvcNAQkBFiRjZXJ0aWZpY2F0ZXMrbm9yZXBseUBzdGFy
bGluZ2xhYi5vcmcwWTATBgcqhkjOPQIBBggqhkjOPQMBBwNCAAQDat9vjjfRyDqx
eRoj07kCV4d0nbZUwlB941zCcqB1SsOr9vPrrg/galW9Vatph5ssBbxoLBcdmXbq
leY+aso+o4IBYTCCAV0wHQYDVR0OBBYEFOUpbiM8sAQabQ5MemIK0lyhpEGUMB8G
A1UdIwQYMBaAFKA132MUYeX7HG+stEo4nZnxCUjOMBIGA1UdEwEB/wQIMAYBAf8C
AQAwDgYDVR0PAQH/BAQDAgGGMHkGCCsGAQUFBwEBBG0wazAzBggrBgEFBQcwAoYn
aXBuczovL2NlcnRzLnN0YXJsaW5nbGFiLm9yZy90cnVzdC5jZXJ0MDQGCCsGAQUF
BzAChihodHRwczovL2NlcnRzLnN0YXJsaW5nbGFiLm9yZy90cnVzdC5jZXJ0MHwG
A1UdHwR1MHMwN6A1oDOGMWlwbnM6Ly9jYS5zdGFybGluZ2xhYi5vcmcvcmV2b2tl
LWludGVybWVkaWF0ZS5jcmwwOKA2oDSGMmh0dHBzOi8vY2Euc3RhcmxpbmdsYWIu
b3JnL3Jldm9rZS1pbnRlcm1lZGlhdGUuY3JsMAoGCCqGSM49BAMEA0cAMEQCIBQx
DNm8zWczroq3bFdyrzUMTRfG6DkAuHdzUKtX2vnLAiAiYpBVOcrpf+rjppPeVFEw
mplvnl/++w1K1jIpBGFYEA==
-----END CERTIFICATE-----
